target datalayout = "e-m:e-p270:32:32-p271:32:32-p272:64:64-i64:64-i128:128-f80:128-n8:16:32:64-S128"
target triple = "x86_64-pc-linux-gnu"

%struct._GdkEventCrossing = type { i32, ptr, i8, ptr, i32, double, double, double, double, i32, i32, i32, i32 }

@__func__._thumbnail_btn_enter_leave_notify_callback = private unnamed_addr constant [43 x i8] c"_thumbnail_btn_enter_leave_notify_callback\00", align 1
@.str.6 = private unnamed_addr constant [15 x i8] c"widget != NULL\00", align 1

; Function Attrs: nounwind uwtable
define internal i32 @_thumbnail_btn_enter_leave_notify_callback(ptr noundef %0, ptr noundef %1) #0 {
  %3 = alloca i32, align 4
  %4 = alloca ptr, align 8
  %5 = alloca ptr, align 8
  %6 = alloca i32, align 4
  %7 = alloca i32, align 4
  store ptr %0, ptr %4, align 8, !tbaa !29
  store ptr %1, ptr %5, align 8, !tbaa !66
  br label %8

8:                                                ; preds = %2
  call void @llvm.lifetime.start.p0(i64 4, ptr %6) #8
  %9 = load ptr, ptr %4, align 8, !tbaa !29
  %10 = icmp ne ptr %9, null
  br i1 %10, label %11, label %12

11:                                               ; preds = %8
  store i32 1, ptr %6, align 4, !tbaa !13
  br label %13

12:                                               ; preds = %8
  store i32 0, ptr %6, align 4, !tbaa !13
  br label %13

13:                                               ; preds = %12, %11
  %14 = load i32, ptr %6, align 4, !tbaa !13
  store i32 %14, ptr %7, align 4, !tbaa !13
  call void @llvm.lifetime.end.p0(i64 4, ptr %6) #8
  %15 = load i32, ptr %7, align 4, !tbaa !13
  %16 = sext i32 %15 to i64
  %17 = call i64 @llvm.expect.i64(i64 %16, i64 1)
  %18 = icmp ne i64 %17, 0
  br i1 %18, label %19, label %20

19:                                               ; preds = %13
  br label %21

20:                                               ; preds = %13
  call void @g_return_if_fail_warning(ptr noundef null, ptr noundef @__func__._thumbnail_btn_enter_leave_notify_callback, ptr noundef @.str.6)
  store i32 0, ptr %3, align 4
  br label %33

21:                                               ; preds = %19
  br label %22

22:                                               ; preds = %21
  %23 = load ptr, ptr %5, align 8, !tbaa !66
  %24 = getelementptr inbounds nuw %struct._GdkEventCrossing, ptr %23, i32 0, i32 0
  %25 = load i32, ptr %24, align 8, !tbaa !68
  %26 = icmp eq i32 %25, 10
  br i1 %26, label %27, label %29

27:                                               ; preds = %22
  %28 = load ptr, ptr %4, align 8, !tbaa !29
  call void @gtk_widget_set_state_flags(ptr noundef %28, i32 noundef 2, i32 noundef 0)
  br label %31

29:                                               ; preds = %22
  %30 = load ptr, ptr %4, align 8, !tbaa !29
  call void @gtk_widget_unset_state_flags(ptr noundef %30, i32 noundef 2)
  br label %31

31:                                               ; preds = %29, %27
  %32 = load ptr, ptr %4, align 8, !tbaa !29
  call void @gtk_widget_queue_draw(ptr noundef %32)
  store i32 0, ptr %3, align 4
  br label %33

33:                                               ; preds = %31, %20
  %34 = load i32, ptr %3, align 4
  ret i32 %34
}