; Function Attrs: nounwind uwtable
define internal noundef i32 @_thumbnail_btn_enter_leave_notify_callback(ptr noundef %0, ptr noundef readonly captures(none) %1) #0 {
  %.not = icmp eq ptr %0, null
  br i1 %.not, label %3, label %4, !prof !51

3:                                                ; preds = %2
  tail call void @g_return_if_fail_warning(ptr noundef null, ptr noundef nonnull @__func__._thumbnail_btn_enter_leave_notify_callback, ptr noundef nonnull @.str.6) #7
  br label %10

4:                                                ; preds = %2
  %5 = load i32, ptr %1, align 8, !tbaa !52
  %6 = icmp eq i32 %5, 10
  br i1 %6, label %7, label %8

7:                                                ; preds = %4
  tail call void @gtk_widget_set_state_flags(ptr noundef nonnull %0, i32 noundef 2, i32 noundef 0) #7
  br label %9

8:                                                ; preds = %4
  tail call void @gtk_widget_unset_state_flags(ptr noundef nonnull %0, i32 noundef 2) #7
  br label %9

9:                                                ; preds = %8, %7
  tail call void @gtk_widget_queue_draw(ptr noundef nonnull %0) #7
  br label %10

10:                                               ; preds = %9, %3
  ret i32 0
}